Certificate:
    Data:
        Version: 3 (0x2)
        Serial Number:
            ba:4a:2b:a0:2c:04:54:f8
        Signature Algorithm: sha1WithRSAEncryption
        Issuer: C=CN, ST=Beijing, O=kevin com, OU=dev, CN=kevin.com/emailAddress=zhangjw@gmail.com
        Validity
            Not Before: Aug 20 07:38:09 2009 GMT
            Not After : Aug 19 07:38:09 2012 GMT
        Subject: C=CN, ST=Beijing, O=kevin com, OU=dev, CN=kevin.com/emailAddress=zhangjw@gmail.com
        Subject Public Key Info:
            Public Key Algorithm: rsaEncryption
            RSA Public Key: (1024 bit)
                Modulus (1024 bit):
                    00:9a:21:94:22:36:86:9c:fb:7b:94:5f:cf:59:81:
                    6e:13:2b:85:06:b2:b7:53:e9:04:f4:03:83:bf:7c:
                    4c:97:17:b7:e6:3a:5c:5d:ec:67:54:8a:59:eb:9c:
                    e7:72:f9:78:ab:2e:e4:12:50:d8:4a:fa:6d:c2:fa:
                    90:86:24:bc:6f:f2:49:c3:dd:6b:9e:b6:21:50:61:
                    3e:71:33:c1:c6:5a:9c:e5:03:82:44:c8:c2:bc:bc:
                    9e:4a:22:05:83:2b:78:35:ba:36:81:20:de:0d:f1:
                    3e:8b:d7:4b:ca:4b:6e:13:19:25:13:b3:0a:fe:39:
                    38:1e:f3:20:9d:82:35:b6:f1
                Exponent: 65537 (0x10001)
        X509v3 extensions:
            X509v3 Subject Key Identifier: 
                C5:97:EA:B5:37:DD:78:0D:4C:5A:27:E0:C3:27:54:9F:AB:2F:DA:9D
            X509v3 Authority Key Identifier: 
                keyid:C5:97:EA:B5:37:DD:78:0D:4C:5A:27:E0:C3:27:54:9F:AB:2F:DA:9D
                DirName:/C=CN/ST=Beijing/O=kevin com/OU=dev/CN=kevin.com/emailAddress=zhangjw@gmail.com
                serial:BA:4A:2B:A0:2C:04:54:F8

            X509v3 Basic Constraints: 
                CA:TRUE
    Signature Algorithm: sha1WithRSAEncryption
        48:9c:8b:da:3d:db:ca:c7:07:5d:d7:93:82:bb:51:7f:be:5d:
        11:b2:99:91:8a:72:8a:4f:a3:e8:17:cc:14:4d:d3:a0:4a:1b:
        1e:8d:f4:4c:d5:1b:dc:1b:0b:32:ae:d9:a3:b2:72:15:1d:4c:
        13:6a:21:a8:6f:c7:86:7d:00:e1:c4:29:30:93:0c:85:9c:45:
        5b:82:2b:d6:2e:ae:9c:30:3d:13:28:20:43:54:4c:03:37:d2:
        91:48:3f:76:73:3c:c6:81:7b:6c:6b:55:42:9e:fc:fb:97:b1:
        3d:c6:f6:b2:20:07:c7:a2:cc:f5:69:03:ca:2d:cf:d3:1d:0b:
        b6:1b
-----BEGIN CERTIFICATE-----
MIIDSTCCArKgAwIBAgIJALpKK6AsBFT4MA0GCSqGSIb3DQEBBQUAMHcxCzAJBgNV
BAYTAkNOMRAwDgYDVQQIEwdCZWlqaW5nMRIwEAYDVQQKEwlrZXZpbiBjb20xDDAK
BgNVBAsTA2RldjESMBAGA1UEAxMJa2V2aW4uY29tMSAwHgYJKoZIhvcNAQkBFhF6
aGFuZ2p3QGdtYWlsLmNvbTAeFw0wOTA4MjAwNzM4MDlaFw0xMjA4MTkwNzM4MDla
MHcxCzAJBgNVBAYTAkNOMRAwDgYDVQQIEwdCZWlqaW5nMRIwEAYDVQQKEwlrZXZp
biBjb20xDDAKBgNVBAsTA2RldjESMBAGA1UEAxMJa2V2aW4uY29tMSAwHgYJKoZI
hvcNAQkBFhF6aGFuZ2p3QGdtYWlsLmNvbTCBnzANBgkqhkiG9w0BAQEFAAOBjQAw
gYkCgYEAmiGUIjaGnPt7lF/PWYFuEyuFBrK3U+kE9AODv3xMlxe35jpcXexnVIpZ
65zncvl4qy7kElDYSvptwvqQhiS8b/JJw91rnrYhUGE+cTPBxlqc5QOCRMjCvLye
SiIFgyt4Nbo2gSDeDfE+i9dLyktuExklE7MK/jk4HvMgnYI1tvECAwEAAaOB3DCB
2TAdBgNVHQ4EFgQUxZfqtTfdeA1MWifgwydUn6sv2p0wgakGA1UdIwSBoTCBnoAU
xZfqtTfdeA1MWifgwydUn6sv2p2he6R5MHcxCzAJBgNVBAYTAkNOMRAwDgYDVQQI
EwdCZWlqaW5nMRIwEAYDVQQKEwlrZXZpbiBjb20xDDAKBgNVBAsTA2RldjESMBAG
A1UEAxMJa2V2aW4uY29tMSAwHgYJKoZIhvcNAQkBFhF6aGFuZ2p3QGdtYWlsLmNv
bYIJALpKK6AsBFT4MAwGA1UdEwQFMAMBAf8wDQYJKoZIhvcNAQEFBQADgYEASJyL
2j3byscHXdeTgrtRf75dEbKZkYpyik+j6BfMFE3ToEobHo30TNUb3BsLMq7Zo7Jy
FR1ME2ohqG/Hhn0A4cQpMJMMhZxFW4Ir1i6unDA9EyggQ1RMAzfSkUg/dnM8xoF7
bGtVQp78+5exPcb2siAHx6LM9WkDyi3P0x0Lths=
-----END CERTIFICATE-----
