Certificate:
    Data:
        Version: 3 (0x2)
        Serial Number:
            ba:4a:2b:a0:2c:04:54:f9
        Signature Algorithm: sha1WithRSAEncryption
        Issuer: C=CN, ST=Beijing, O=kevin com, OU=dev, CN=kevin.com/emailAddress=zhangjw@gmail.com
        Validity
            Not Before: Aug 20 07:39:36 2009 GMT
            Not After : Aug 20 07:39:36 2010 GMT
        Subject: C=CN, ST=Beijing, L=Haidian, O=kevin com, OU=dev, CN=kevin.com/emailAddress=zhangjw@gmail.com
        Subject Public Key Info:
            Public Key Algorithm: rsaEncryption
            RSA Public Key: (1024 bit)
                Modulus (1024 bit):
                    00:c3:02:96:64:26:68:78:4d:50:d6:c9:eb:20:97:
                    d6:0c:5a:c7:96:58:58:8d:2b:dc:44:68:98:9b:d6:
                    c4:08:87:db:be:f4:95:01:0c:ba:ef:d9:6f:04:d0:
                    d6:f8:bd:6a:c3:c2:d5:94:b5:e8:fb:fa:5e:48:51:
                    36:30:14:9b:62:b5:1f:1c:05:18:e7:d7:32:00:55:
                    4b:12:ac:04:93:6d:04:9b:11:3c:76:00:3d:f6:12:
                    36:23:b7:70:0a:02:b7:5b:40:ba:c4:c5:ef:4e:00:
                    6e:ce:2c:b1:0e:7e:80:0b:bf:66:79:c7:91:da:ca:
                    e0:c7:74:7b:6c:85:77:fa:35
                Exponent: 65537 (0x10001)
        X509v3 extensions:
            X509v3 Basic Constraints: 
                CA:FALSE
            Netscape Comment: 
                OpenSSL Generated Certificate
            X509v3 Subject Key Identifier: 
                03:7F:63:F1:63:FB:3F:28:5C:F1:0F:CE:54:E8:0F:61:6B:C0:B8:2E
            X509v3 Authority Key Identifier: 
                keyid:C5:97:EA:B5:37:DD:78:0D:4C:5A:27:E0:C3:27:54:9F:AB:2F:DA:9D

    Signature Algorithm: sha1WithRSAEncryption
        05:a3:b6:b6:7d:02:5a:ad:ba:d9:bb:e6:4c:fb:52:31:8f:a2:
        99:4a:c3:e1:b9:65:fa:55:a8:94:bf:6b:b1:4b:ee:3a:1a:ef:
        41:a6:dc:57:a3:83:bf:d4:44:b1:d7:cc:c1:aa:64:72:8a:83:
        29:ea:7a:c8:3b:d4:00:c7:94:37:69:0d:6a:93:69:70:3b:58:
        0d:bb:02:f0:bc:03:30:b4:e2:ef:b6:30:2c:fc:30:6a:90:1f:
        91:16:ad:ba:6a:29:71:e2:89:fc:9f:53:e0:1d:5d:e9:c4:44:
        fd:ed:71:6f:3c:84:36:01:fc:04:07:38:a2:d6:b6:72:e0:0f:
        84:df
-----BEGIN CERTIFICATE-----
MIIC+jCCAmOgAwIBAgIJALpKK6AsBFT5MA0GCSqGSIb3DQEBBQUAMHcxCzAJBgNV
BAYTAkNOMRAwDgYDVQQIEwdCZWlqaW5nMRIwEAYDVQQKEwlrZXZpbiBjb20xDDAK
BgNVBAsTA2RldjESMBAGA1UEAxMJa2V2aW4uY29tMSAwHgYJKoZIhvcNAQkBFhF6
aGFuZ2p3QGdtYWlsLmNvbTAeFw0wOTA4MjAwNzM5MzZaFw0xMDA4MjAwNzM5MzZa
MIGJMQswCQYDVQQGEwJDTjEQMA4GA1UECBMHQmVpamluZzEQMA4GA1UEBxMHSGFp
ZGlhbjESMBAGA1UEChMJa2V2aW4gY29tMQwwCgYDVQQLEwNkZXYxEjAQBgNVBAMT
CWtldmluLmNvbTEgMB4GCSqGSIb3DQEJARYRemhhbmdqd0BnbWFpbC5jb20wgZ8w
DQYJKoZIhvcNAQEBBQADgY0AMIGJAoGBAMMClmQmaHhNUNbJ6yCX1gxax5ZYWI0r
3ERomJvWxAiH2770lQEMuu/ZbwTQ1vi9asPC1ZS16Pv6XkhRNjAUm2K1HxwFGOfX
MgBVSxKsBJNtBJsRPHYAPfYSNiO3cAoCt1tAusTF704Abs4ssQ5+gAu/ZnnHkdrK
4Md0e2yFd/o1AgMBAAGjezB5MAkGA1UdEwQCMAAwLAYJYIZIAYb4QgENBB8WHU9w
ZW5TU0wgR2VuZXJhdGVkIENlcnRpZmljYXRlMB0GA1UdDgQWBBQDf2PxY/s/KFzx
D85U6A9ha8C4LjAfBgNVHSMEGDAWgBTFl+q1N914DUxaJ+DDJ1Sfqy/anTANBgkq
hkiG9w0BAQUFAAOBgQAFo7a2fQJarbrZu+ZM+1Ixj6KZSsPhuWX6VaiUv2uxS+46
Gu9BptxXo4O/1ESx18zBqmRyioMp6nrIO9QAx5Q3aQ1qk2lwO1gNuwLwvAMwtOLv
tjAs/DBqkB+RFq26ailx4on8n1PgHV3pxET97XFvPIQ2AfwEBzii1rZy4A+E3w==
-----END CERTIFICATE-----
