Certificate:
    Data:
        Version: 3 (0x2)
        Serial Number:
            ba:4a:2b:a0:2c:04:54:fa
        Signature Algorithm: sha1WithRSAEncryption
        Issuer: C=CN, ST=Beijing, O=kevin com, OU=dev, CN=kevin.com/emailAddress=zhangjw@gmail.com
        Validity
            Not Before: Aug 20 08:19:26 2009 GMT
            Not After : Aug 20 08:19:26 2010 GMT
        Subject: C=CN, ST=Beijing, L=Haidian, O=kevin com, OU=dev, CN=kevin.com/emailAddress=zhangjw@gmail.com
        Subject Public Key Info:
            Public Key Algorithm: rsaEncryption
            RSA Public Key: (1024 bit)
                Modulus (1024 bit):
                    00:a9:af:c2:00:36:7f:fb:ed:6c:23:22:f7:bf:7d:
                    6d:69:35:75:5a:b8:f4:f6:a6:59:8a:28:54:e9:c2:
                    e5:89:95:0e:66:54:c4:1d:96:41:6d:ae:74:38:97:
                    df:fd:2a:9b:80:9d:4c:2f:fc:e1:6d:c3:c8:c4:66:
                    87:be:06:54:45:80:23:f4:0e:cf:85:0c:b9:08:26:
                    47:13:e6:44:d0:39:a4:93:21:5d:b5:cb:2c:04:67:
                    63:1b:76:60:60:a5:e4:ac:f8:59:fe:95:a4:50:c0:
                    d4:75:26:65:5d:dd:ab:b4:5a:84:75:8a:8e:d4:78:
                    0d:01:61:eb:73:4e:86:d0:dd
                Exponent: 65537 (0x10001)
        X509v3 extensions:
            X509v3 Basic Constraints: 
                CA:FALSE
            Netscape Comment: 
                OpenSSL Generated Certificate
            X509v3 Subject Key Identifier: 
                19:55:2C:B7:9C:5A:C1:95:2A:55:E8:75:18:DC:20:D9:40:FF:A1:67
            X509v3 Authority Key Identifier: 
                keyid:C5:97:EA:B5:37:DD:78:0D:4C:5A:27:E0:C3:27:54:9F:AB:2F:DA:9D

    Signature Algorithm: sha1WithRSAEncryption
        33:61:8e:10:75:6b:01:4e:9a:f3:f9:47:fc:1d:63:50:9e:25:
        82:d4:21:e7:ff:3d:b1:81:d4:e5:48:06:ca:43:9d:5f:ad:02:
        eb:9b:82:4c:fe:0a:e9:f1:b3:7c:78:33:b8:25:66:4c:7f:7f:
        48:57:6a:85:e1:f7:7f:e5:f3:4b:a3:3c:6f:a8:46:97:0e:3d:
        2f:ce:35:c9:7f:25:3f:c9:ee:8b:b5:a0:cb:3d:d8:5d:a5:f3:
        d2:2b:09:17:df:a7:d6:42:66:73:b1:46:69:bb:5a:6d:94:55:
        63:7e:80:63:37:cc:53:8f:d6:7c:e1:cb:1d:5f:c5:92:24:fe:
        d4:8b
-----BEGIN CERTIFICATE-----
MIIC+jCCAmOgAwIBAgIJALpKK6AsBFT6MA0GCSqGSIb3DQEBBQUAMHcxCzAJBgNV
BAYTAkNOMRAwDgYDVQQIEwdCZWlqaW5nMRIwEAYDVQQKEwlrZXZpbiBjb20xDDAK
BgNVBAsTA2RldjESMBAGA1UEAxMJa2V2aW4uY29tMSAwHgYJKoZIhvcNAQkBFhF6
aGFuZ2p3QGdtYWlsLmNvbTAeFw0wOTA4MjAwODE5MjZaFw0xMDA4MjAwODE5MjZa
MIGJMQswCQYDVQQGEwJDTjEQMA4GA1UECBMHQmVpamluZzEQMA4GA1UEBxMHSGFp
ZGlhbjESMBAGA1UEChMJa2V2aW4gY29tMQwwCgYDVQQLEwNkZXYxEjAQBgNVBAMT
CWtldmluLmNvbTEgMB4GCSqGSIb3DQEJARYRemhhbmdqd0BnbWFpbC5jb20wgZ8w
DQYJKoZIhvcNAQEBBQADgY0AMIGJAoGBAKmvwgA2f/vtbCMi9799bWk1dVq49Pam
WYooVOnC5YmVDmZUxB2WQW2udDiX3/0qm4CdTC/84W3DyMRmh74GVEWAI/QOz4UM
uQgmRxPmRNA5pJMhXbXLLARnYxt2YGCl5Kz4Wf6VpFDA1HUmZV3dq7RahHWKjtR4
DQFh63NOhtDdAgMBAAGjezB5MAkGA1UdEwQCMAAwLAYJYIZIAYb4QgENBB8WHU9w
ZW5TU0wgR2VuZXJhdGVkIENlcnRpZmljYXRlMB0GA1UdDgQWBBQZVSy3nFrBlSpV
6HUY3CDZQP+hZzAfBgNVHSMEGDAWgBTFl+q1N914DUxaJ+DDJ1Sfqy/anTANBgkq
hkiG9w0BAQUFAAOBgQAzYY4QdWsBTprz+Uf8HWNQniWC1CHn/z2xgdTlSAbKQ51f
rQLrm4JM/grp8bN8eDO4JWZMf39IV2qF4fd/5fNLozxvqEaXDj0vzjXJfyU/ye6L
taDLPdhdpfPSKwkX36fWQmZzsUZpu1ptlFVjfoBjN8xTj9Z84csdX8WSJP7Uiw==
-----END CERTIFICATE-----
